target datalayout = "e-m:e-p270:32:32-p271:32:32-p272:64:64-i64:64-i128:128-f80:128-n8:16:32:64-S128"
target triple = "x86_64-unknown-linux-gnu"

; Function Attrs: nounwind sspstrong uwtable
define dso_local zeroext i1 @migrate_ram_is_ignored(ptr noundef %block) #0 {
entry:
  %block.addr = alloca ptr, align 8
  store ptr %block, ptr %block.addr, align 8
  %0 = load ptr, ptr %block.addr, align 8
  %call = call zeroext i1 @qemu_ram_is_migratable(ptr noundef %0)
  br i1 %call, label %lor.rhs, label %lor.end

lor.rhs:                                          ; preds = %entry
  %call1 = call zeroext i1 @migrate_ignore_shared()
  br i1 %call1, label %land.lhs.true, label %land.end

land.lhs.true:                                    ; preds = %lor.rhs
  %1 = load ptr, ptr %block.addr, align 8
  %call2 = call zeroext i1 @qemu_ram_is_shared(ptr noundef %1)
  br i1 %call2, label %land.rhs, label %land.end

land.rhs:                                         ; preds = %land.lhs.true
  %2 = load ptr, ptr %block.addr, align 8
  %call3 = call zeroext i1 @qemu_ram_is_named_file(ptr noundef %2)
  br label %land.end

land.end:                                         ; preds = %land.rhs, %land.lhs.true, %lor.rhs
  %3 = phi i1 [ false, %land.lhs.true ], [ false, %lor.rhs ], [ %call3, %land.rhs ]
  br label %lor.end

lor.end:                                          ; preds = %land.end, %entry
  %4 = phi i1 [ true, %entry ], [ %3, %land.end ]
  ret i1 %4
}