; Function Attrs: nounwind sspstrong uwtable
define dso_local zeroext i1 @migrate_ram_is_ignored(ptr noundef %block) local_unnamed_addr #0 {
entry:
  %call = tail call zeroext i1 @qemu_ram_is_migratable(ptr noundef %block) #18
  br i1 %call, label %lor.rhs, label %lor.end

lor.rhs:                                          ; preds = %entry
  %call1 = tail call zeroext i1 @migrate_ignore_shared() #18
  br i1 %call1, label %land.lhs.true, label %lor.end

land.lhs.true:                                    ; preds = %lor.rhs
  %call2 = tail call zeroext i1 @qemu_ram_is_shared(ptr noundef %block) #18
  br i1 %call2, label %land.rhs, label %lor.end

land.rhs:                                         ; preds = %land.lhs.true
  %call3 = tail call zeroext i1 @qemu_ram_is_named_file(ptr noundef %block) #18
  br label %lor.end

lor.end:                                          ; preds = %lor.rhs, %land.lhs.true, %land.rhs, %entry
  %0 = phi i1 [ true, %entry ], [ false, %land.lhs.true ], [ false, %lor.rhs ], [ %call3, %land.rhs ]
  ret i1 %0
}